LIBRARY SpeedTreeRT
EXPORTS
    ??0CSpeedTreeAllocator@@QAE@ABV0@@Z @1
    ??0CSpeedTreeAllocator@@QAE@XZ @2
    ??0CSpeedTreeRT@@AAE@PBV0@@Z @3
    ??0CSpeedTreeRT@@QAE@ABV0@@Z @4
    ??0CSpeedTreeRT@@QAE@XZ @5
    ??0CSpeedWind@@QAE@ABV0@@Z @6
    ??0CSpeedWind@@QAE@XZ @7
    ??0CSpeedWindMatrix@@QAE@XZ @8
    ??0S360Billboard@SGeometry@CSpeedTreeRT@@QAE@XZ @9
    ??0SCard@SLeaf@SGeometry@CSpeedTreeRT@@QAE@XZ @10
    ??0SGeometry@CSpeedTreeRT@@QAE@XZ @11
    ??0SHorzBillboard@SGeometry@CSpeedTreeRT@@QAE@XZ @12
    ??0SIndexed@SGeometry@CSpeedTreeRT@@QAE@XZ @13
    ??0SLeaf@SGeometry@CSpeedTreeRT@@QAE@ABU012@@Z @14
    ??0SLeaf@SGeometry@CSpeedTreeRT@@QAE@XZ @15
    ??0SLightShaderParams@CSpeedTreeRT@@QAE@XZ @16
    ??0SLodValues@CSpeedTreeRT@@QAE@XZ @17
    ??0SMapBank@CSpeedTreeRT@@QAE@XZ @18
    ??0SMesh@SLeaf@SGeometry@CSpeedTreeRT@@QAE@XZ @19
    ??1CSpeedTreeAllocator@@UAE@XZ @20
    ??1CSpeedTreeRT@@UAE@XZ @21
    ??1CSpeedWind@@QAE@XZ @22
    ??1CSpeedWindMatrix@@QAE@XZ @23
    ??1SCard@SLeaf@SGeometry@CSpeedTreeRT@@QAE@XZ @24
    ??1SGeometry@CSpeedTreeRT@@QAE@XZ @25
    ??1SIndexed@SGeometry@CSpeedTreeRT@@QAE@XZ @26
    ??1SLeaf@SGeometry@CSpeedTreeRT@@UAE@XZ @27
    ??1SMapBank@CSpeedTreeRT@@QAE@XZ @28
    ??1SMesh@SLeaf@SGeometry@CSpeedTreeRT@@QAE@XZ @29
    ??2CSpeedTreeRT@@SAPAXI@Z @30
    ??3CSpeedTreeRT@@SAXPAX@Z @31
    ??4CSpeedTreeAllocator@@QAEAAV0@ABV0@@Z @32
    ??4CSpeedTreeRT@@QAEAAV0@ABV0@@Z @33
    ??4CSpeedWind@@QAEAAV0@ABV0@@Z @34
    ??4CSpeedWindMatrix@@QAEAAV0@ABV0@@Z @35
    ??4S360Billboard@SGeometry@CSpeedTreeRT@@QAEAAU012@ABU012@@Z @36
    ??4SCard@SLeaf@SGeometry@CSpeedTreeRT@@QAEAAU0123@ABU0123@@Z @37
    ??4SGeometry@CSpeedTreeRT@@QAEAAU01@ABU01@@Z @38
    ??4SHorzBillboard@SGeometry@CSpeedTreeRT@@QAEAAU012@ABU012@@Z @39
    ??4SIndexed@SGeometry@CSpeedTreeRT@@QAEAAU012@ABU012@@Z @40
    ??4SLeaf@SGeometry@CSpeedTreeRT@@QAEAAU012@ABU012@@Z @41
    ??4SLightShaderParams@CSpeedTreeRT@@QAEAAU01@ABU01@@Z @42
    ??4SLodValues@CSpeedTreeRT@@QAEAAU01@ABU01@@Z @43
    ??4SMapBank@CSpeedTreeRT@@QAEAAU01@ABU01@@Z @44
    ??4SMesh@SLeaf@SGeometry@CSpeedTreeRT@@QAEAAU0123@ABU0123@@Z @45
    ??DCSpeedWindMatrix@@QBE?AV0@ABV0@@Z @46
    ??_7CSpeedTreeAllocator@@6B@ @47
    ??_7CSpeedTreeRT@@6B@ @48
    ??_7SLeaf@SGeometry@CSpeedTreeRT@@6B@ @49
    ??_UCSpeedTreeRT@@SAPAXI@Z @50
    ??_VCSpeedTreeRT@@SAXPAX@Z @51
    ?Advance@CSpeedWind@@QAEXM_N0MMM@Z @52
    ?Authorize@CSpeedTreeRT@@SA_NPBD@Z @53
    ?BlendParameters@CSpeedWind@@QAEXPAPAV1@PAMI@Z @54
    ?Clone@CSpeedTreeRT@@QBEPAV1@XZ @55
    ?Compute@CSpeedTreeRT@@QAE_NPBMI_N@Z @56
    ?ComputeLeafStaticLighting@CSpeedTreeRT@@AAEXXZ @57
    ?ComputeLodCurve@CSpeedTreeRT@@AAEMMMM_N@Z @58
    ?ComputeLodCurveBB@CSpeedTreeRT@@AAEMMMM@Z @59
    ?ComputeLodLevel@CSpeedTreeRT@@QAEXXZ @60
    ?ComputeSelfShadowTexCoords@CSpeedTreeRT@@AAEXXZ @61
    ?ComputeWindEffects@CSpeedTreeRT@@QAEX_N00@Z @62
    ?CopyUserData@CSpeedTreeRT@@CAPADPBD@Z @63
    ?DeleteBranchGeometry@CSpeedTreeRT@@QAEXXZ @64
    ?DeleteFrondGeometry@CSpeedTreeRT@@QAEXXZ @65
    ?DeleteLeafGeometry@CSpeedTreeRT@@QAEXXZ @66
    ?DeleteTransientData@CSpeedTreeRT@@QAEXXZ @67
    ?GetBillboardGeometry@CSpeedTreeRT@@AAEXAAUSGeometry@1@@Z @68
    ?GetBoundingBox@CSpeedTreeRT@@QBEXPAM@Z @69
    ?GetBranchGeometry@CSpeedTreeRT@@AAEXAAUSGeometry@1@@Z @70
    ?GetBranchHorizontal@CSpeedWind@@QBEXAAM000@Z @71
    ?GetBranchLightingMethod@CSpeedTreeRT@@QBE?AW4ELightingMethod@1@XZ @72
    ?GetBranchMaterial@CSpeedTreeRT@@QBEPBMXZ @73
    ?GetBranchVertical@CSpeedWind@@QBEXAAM000@Z @74
    ?GetBranchWindMethod@CSpeedTreeRT@@QBE?AW4EWindMethod@1@XZ @75
    ?GetCamera@CSpeedTreeRT@@SAXPAM0@Z @76
    ?GetCameraAngles@CSpeedTreeRT@@SAXAAM0@Z @77
    ?GetCollisionObject@CSpeedTreeRT@@QAEXIAAW4ECollisionObjectType@1@PAM11@Z @78
    ?GetCurrentError@CSpeedTreeRT@@SAPBDXZ @79
    ?GetDiscreteBranchLodLevel@CSpeedTreeRT@@QBEHM@Z @80
    ?GetDiscreteFrondLodLevel@CSpeedTreeRT@@QBEHM@Z @81
    ?GetDiscreteLeafLodLevel@CSpeedTreeRT@@QBEHM@Z @82
    ?GetExponents@CSpeedWind@@QBEXAAM0@Z @83
    ?GetFinalStrength@CSpeedWind@@QAEMXZ @84
    ?GetFrondGeometry@CSpeedTreeRT@@AAEXAAUSGeometry@1@@Z @85
    ?GetFrondGeometryMapIndexes@CSpeedTreeRT@@QBEPAEH@Z @86
    ?GetFrondLightingMethod@CSpeedTreeRT@@QBE?AW4ELightingMethod@1@XZ @87
    ?GetFrondMaterial@CSpeedTreeRT@@QBEPBMXZ @88
    ?GetFrondWindMethod@CSpeedTreeRT@@QBE?AW4EWindMethod@1@XZ @89
    ?GetGeometry@CSpeedTreeRT@@QAEXAAUSGeometry@1@I@Z @90
    ?GetGusting@CSpeedWind@@QBEXAAM0000@Z @91
    ?GetHorzBillboardFadeAngles@CSpeedTreeRT@@SAXAAM0@Z @92
    ?GetHorzBillboardFadeValue@CSpeedTreeRT@@SAMXZ @93
    ?GetLeafAngleMatrix@CSpeedWind@@QBEPAMI@Z @94
    ?GetLeafBillboardTable@CSpeedTreeRT@@QBEPBMAAI@Z @95
    ?GetLeafGeometry@CSpeedTreeRT@@AAEXAAUSGeometry@1@@Z @96
    ?GetLeafLightingAdjustment@CSpeedTreeRT@@QBEMXZ @97
    ?GetLeafLightingMethod@CSpeedTreeRT@@QBE?AW4ELightingMethod@1@XZ @98
    ?GetLeafMaterial@CSpeedTreeRT@@QBEPBMXZ @99
    ?GetLeafRocking@CSpeedWind@@QBEXAAM000@Z @100
    ?GetLeafRockingState@CSpeedTreeRT@@QBE_NXZ @101
    ?GetLeafRustling@CSpeedWind@@QBEXAAM000@Z @102
    ?GetLeafWindMethod@CSpeedTreeRT@@QBE?AW4EWindMethod@1@XZ @103
    ?GetLightAttributes@CSpeedTreeRT@@SAPBMI@Z @104
    ?GetLightShaderParams@CSpeedTreeRT@@QBEXAAUSLightShaderParams@1@@Z @105
    ?GetLightState@CSpeedTreeRT@@SA_NI@Z @106
    ?GetLocalMatrices@CSpeedTreeRT@@QAEXAAI0@Z @107
    ?GetLodLevel@CSpeedTreeRT@@QBEMXZ @108
    ?GetLodLimits@CSpeedTreeRT@@QBEXAAM0@Z @109
    ?GetLodValues@CSpeedTreeRT@@QAEXAAUSLodValues@1@M@Z @110
    ?GetMapBank@CSpeedTreeRT@@QBEXAAUSMapBank@1@@Z @111
    ?GetMaxBendAngle@CSpeedWind@@QBEMXZ @112
    ?GetMemoryPreference@CSpeedTreeRT@@SA?AW4EMemoryPreference@1@XZ @113
    ?GetMemoryUsage@CSpeedTreeRT@@SAIXZ @114
    ?GetNumBranchLodLevels@CSpeedTreeRT@@QBEHXZ @115
    ?GetNumBranchTriangles@CSpeedTreeRT@@QAEHM@Z @116
    ?GetNumCollisionObjects@CSpeedTreeRT@@QAEHXZ @117
    ?GetNumFrondLodLevels@CSpeedTreeRT@@QBEHXZ @118
    ?GetNumFrondTriangles@CSpeedTreeRT@@QAEHM@Z @119
    ?GetNumLeafAngleMatrices@CSpeedWind@@QBEIXZ @120
    ?GetNumLeafLodLevels@CSpeedTreeRT@@QBEHXZ @121
    ?GetNumLeafTriangles@CSpeedTreeRT@@QAEHM@Z @122
    ?GetNumWindMatrices@CSpeedWind@@QBEIXZ @123
    ?GetQuantities@CSpeedWind@@QBEXAAH0@Z @124
    ?GetRockAngles@CSpeedWind@@QBE_NPAM@Z @125
    ?GetRustleAngles@CSpeedWind@@QBE_NPAM@Z @126
    ?GetSeed@CSpeedTreeRT@@QBEIXZ @127
    ?GetStaticLightingStyle@CSpeedTreeRT@@QBE?AW4EStaticLightingStyle@1@XZ @128
    ?GetTextureFlip@CSpeedTreeRT@@SA_NXZ @129
    ?GetTextureLayerName@CSpeedTreeRT@@SAPBDW4ETextureLayers@1@@Z @130
    ?GetTreePosition@CSpeedTreeRT@@QBEPBMXZ @131
    ?GetTreeSize@CSpeedTreeRT@@QBEXAAM0@Z @132
    ?GetUserData@CSpeedTreeRT@@QBEPBDXZ @133
    ?GetWindMatrix@CSpeedWind@@QBEPAMI@Z @134
    ?GetWindResponse@CSpeedWind@@QBEXAAM0@Z @135
    ?GetWindStrength@CSpeedTreeRT@@QBEMXZ @136
    ?GetWindStrengthAndDirection@CSpeedWind@@QBEXAAM000@Z @137
    ?InstanceOf@CSpeedTreeRT@@QBEPBV1@XZ @138
    ?InterpolateParameters@CSpeedWind@@QAEXPAV1@0M@Z @139
    ?IsAuthorized@CSpeedTreeRT@@SA_NXZ @140
    ?Load@CSpeedWind@@QAE_NPADI@Z @141
    ?Load@CSpeedWind@@QAE_NPBD@Z @142
    ?LoadIdentity@CSpeedWindMatrix@@QAEXXZ @143
    ?LoadTree@CSpeedTreeRT@@QAE_NPBD@Z @144
    ?LoadTree@CSpeedTreeRT@@QAE_NPBEI@Z @145
    ?MakeInstance@CSpeedTreeRT@@QAEPAV1@XZ @146
    ?NotifyAllTreesOfEvent@CSpeedTreeRT@@CAXH@Z @147
    ?ParseCollisionObjects@CSpeedTreeRT@@AAEXPAVCTreeFileAccess@@@Z @148
    ?ParseLodInfo@CSpeedTreeRT@@AAEXPAVCTreeFileAccess@@@Z @149
    ?ParseShadowProjectionInfo@CSpeedTreeRT@@AAEXPAVCTreeFileAccess@@@Z @150
    ?ParseStandardShaderInfo@CSpeedTreeRT@@AAEXAAVCTreeFileAccess@@@Z @151
    ?ParseSupplementalCollisionObjectsInfo@CSpeedTreeRT@@AAEXAAVCTreeFileAccess@@@Z @152
    ?ParseSupplementalLodInfo@CSpeedTreeRT@@AAEXAAVCTreeFileAccess@@@Z @153
    ?ParseSupplementalTexCoordInfo@CSpeedTreeRT@@AAEXPAVCTreeFileAccess@@@Z @154
    ?ParseTextureCoordInfo@CSpeedTreeRT@@AAEXPAVCTreeFileAccess@@@Z @155
    ?ParseUserData@CSpeedTreeRT@@AAEXPAVCTreeFileAccess@@@Z @156
    ?ParseWindInfo@CSpeedTreeRT@@AAEXPAVCTreeFileAccess@@@Z @157
    ?RecoverDeprecatedMaps@CSpeedTreeRT@@AAEXXZ @158
    ?Reset@CSpeedWind@@QAEXXZ @159
    ?ResetError@CSpeedTreeRT@@SAXXZ @160
    ?ResetLeafWindState@CSpeedTreeRT@@QAEXXZ @161
    ?RotateX@CSpeedWindMatrix@@QAEXM@Z @162
    ?RotateY@CSpeedWindMatrix@@QAEXM@Z @163
    ?RotateZ@CSpeedWindMatrix@@QAEXM@Z @164
    ?Save@CSpeedWind@@QBEPADAAI@Z @165
    ?Save@CSpeedWind@@QBE_NPBD@Z @166
    ?SaveCollisionObjects@CSpeedTreeRT@@ABEXPAVCTreeFileAccess@@@Z @167
    ?SaveStandardShaderInfo@CSpeedTreeRT@@ABEXAAVCTreeFileAccess@@@Z @168
    ?SaveSupplementalCollisionObjectsInfo@CSpeedTreeRT@@ABEXAAVCTreeFileAccess@@@Z @169
    ?SaveSupplementalLodInfo@CSpeedTreeRT@@ABEXAAVCTreeFileAccess@@@Z @170
    ?SaveSupplementalTexCoordInfo@CSpeedTreeRT@@ABEXPAVCTreeFileAccess@@@Z @171
    ?SaveTextureCoords@CSpeedTreeRT@@ABEXPAVCTreeFileAccess@@@Z @172
    ?SaveTree@CSpeedTreeRT@@QBEPAEAAI_N@Z @173
    ?SaveUserData@CSpeedTreeRT@@ABEXPAVCTreeFileAccess@@@Z @174
    ?ScaleZ@CSpeedWindMatrix@@QAEXM@Z @175
    ?SetAllocator@CSpeedTreeRT@@SAXPAVCSpeedTreeAllocator@@@Z @176
    ?SetBranchHorizontal@CSpeedWind@@QAEXMMMM@Z @177
    ?SetBranchLightingMethod@CSpeedTreeRT@@QAEXW4ELightingMethod@1@@Z @178
    ?SetBranchMaterial@CSpeedTreeRT@@QAEXPBM@Z @179
    ?SetBranchTextureFilename@CSpeedTreeRT@@QAEXPBD@Z @180
    ?SetBranchVertical@CSpeedWind@@QAEXMMMM@Z @181
    ?SetBranchWindMethod@CSpeedTreeRT@@QAEXW4EWindMethod@1@@Z @182
    ?SetCamera@CSpeedTreeRT@@SAXPBM0@Z @183
    ?SetDropToBillboard@CSpeedTreeRT@@SAX_N@Z @184
    ?SetError@CSpeedTreeRT@@CAXPBD@Z @185
    ?SetExponents@CSpeedWind@@QAEXMM@Z @186
    ?SetFrondLightingMethod@CSpeedTreeRT@@QAEXW4ELightingMethod@1@@Z @187
    ?SetFrondMaterial@CSpeedTreeRT@@QAEXPBM@Z @188
    ?SetFrondTextureCoords@CSpeedTreeRT@@QAEXIPBM@Z @189
    ?SetFrondTextureFilename@CSpeedTreeRT@@QAEXIPBD@Z @190
    ?SetFrondWindMethod@CSpeedTreeRT@@QAEXW4EWindMethod@1@@Z @191
    ?SetGusting@CSpeedWind@@QAEXMMMMM@Z @192
    ?SetHorzBillboardFadeAngles@CSpeedTreeRT@@SAXMM@Z @193
    ?SetLeafLightingAdjustment@CSpeedTreeRT@@QAEXM@Z @194
    ?SetLeafLightingMethod@CSpeedTreeRT@@QAEXW4ELightingMethod@1@@Z @195
    ?SetLeafMaterial@CSpeedTreeRT@@QAEXPBM@Z @196
    ?SetLeafRocking@CSpeedWind@@QAEXMMMM@Z @197
    ?SetLeafRockingState@CSpeedTreeRT@@QAEX_N@Z @198
    ?SetLeafRustling@CSpeedWind@@QAEXMMMM@Z @199
    ?SetLeafTargetAlphaMask@CSpeedTreeRT@@QAEXE@Z @200
    ?SetLeafTextureCoords@CSpeedTreeRT@@QAEXIPBM@Z @201
    ?SetLeafTextureFilename@CSpeedTreeRT@@QAEXIPBD@Z @202
    ?SetLeafWindMethod@CSpeedTreeRT@@QAEXW4EWindMethod@1@@Z @203
    ?SetLightAttributes@CSpeedTreeRT@@SAXIPBM@Z @204
    ?SetLightState@CSpeedTreeRT@@SAXI_N@Z @205
    ?SetLocalMatrices@CSpeedTreeRT@@QAEXII@Z @206
    ?SetLodLevel@CSpeedTreeRT@@QAEXM@Z @207
    ?SetLodLimits@CSpeedTreeRT@@QAEXMM@Z @208
    ?SetMaxBendAngle@CSpeedWind@@QAEXM@Z @209
    ?SetMemoryPreference@CSpeedTreeRT@@SAXW4EMemoryPreference@1@@Z @210
    ?SetNumLeafRockingGroups@CSpeedTreeRT@@QAEXI@Z @211
    ?SetNumWindMatrices@CSpeedTreeRT@@SAXH@Z @212
    ?SetQuantities@CSpeedWind@@QAEXHH@Z @213
    ?SetRotation@CSpeedWindMatrix@@QAEXMMMM@Z @214
    ?SetStaticLightingStyle@CSpeedTreeRT@@QAEXW4EStaticLightingStyle@1@@Z @215
    ?SetTextureFlip@CSpeedTreeRT@@SAX_N@Z @216
    ?SetTime@CSpeedTreeRT@@SAXM@Z @217
    ?SetTreePosition@CSpeedTreeRT@@QAEXMMM@Z @218
    ?SetTreeSize@CSpeedTreeRT@@QAEXMM@Z @219
    ?SetUseRandomBuffer@CSpeedWind@@QAEX_NI@Z @220
    ?SetWindMatrix@CSpeedTreeRT@@SAXIPBM@Z @221
    ?SetWindResponse@CSpeedWind@@QAEXMM@Z @222
    ?SetWindStrength@CSpeedTreeRT@@QAEMMMM@Z @223
    ?SetWindStrengthAndDirection@CSpeedWind@@QAEXMMMM@Z @224
    ?SetWindStrengthAndLeafAngles@CSpeedTreeRT@@QAEXMPBM0I@Z @225
    ?SetupHorizontalBillboard@CSpeedTreeRT@@AAEXXZ @226
    ?UpdateBillboardGeometry@CSpeedTreeRT@@QAEXAAUSGeometry@1@@Z @227
    ?UpdateBillboardLighting@CSpeedTreeRT@@SAXAAUS360Billboard@SGeometry@1@@Z @228
    ?UpdateLeafCards@CSpeedTreeRT@@QAEXAAUSGeometry@1@@Z @229
    ?UpdateSpeedTreeRT@CSpeedWind@@QAEXXZ @230
    ?UpdateTree@CSpeedWind@@QAEXPAVCSpeedTreeRT@@@Z @231
    ?Version@CSpeedTreeRT@@SAPBDXZ @232
    ?g_pAllocator@@3PAVCSpeedTreeAllocator@@A @233
    ?g_sMemoryUsed@@3IA @234
    ?m_bDropToBillboard@CSpeedTreeRT@@0_NA @235
    ?m_bTextureFlip@CSpeedTreeRT@@0_NA @236
    ?m_eMemoryPreference@CSpeedTreeRT@@0W4EMemoryPreference@1@A @237
    ?m_fCameraAzimuth@CSpeedTreeRT@@0MA @238
    ?m_fCameraPitch@CSpeedTreeRT@@0MA @239
    ?m_fHorizontalFadeEndAngle@CSpeedTreeRT@@0MA @240
    ?m_fHorizontalFadeStartAngle@CSpeedTreeRT@@0MA @241
    ?m_fHorizontalFadeValue@CSpeedTreeRT@@0MA @242
    ?m_uiAllRefCount@CSpeedTreeRT@@0IA @243
